; Function Attrs: mustprogress uwtable
define hidden void @_ZN2cv3hal12cpu_baseline10absdiff32sEPKimS3_mPimii(ptr nocapture noundef readonly %0, i64 noundef %1, ptr nocapture noundef readonly %2, i64 noundef %3, ptr nocapture noundef writeonly %4, i64 noundef %5, i32 noundef %6, i32 noundef %7) local_unnamed_addr #0 personality ptr @__gxx_personality_v0 {
  %9 = alloca %"class.cv::utils::trace::details::Region", align 8
  call void @_ZN2cv5utils5trace7details6RegionC1ERKNS3_21LocationStaticStorageE(ptr noundef nonnull align 8 dereferenceable(12) %9, ptr noundef nonnull align 8 dereferenceable(32) @_ZZN2cv3hal12cpu_baseline10absdiff32sEPKimS3_mPimiiE25__cv_trace_location_fn547)
  %10 = lshr i64 %1, 2
  %11 = lshr i64 %3, 2
  %12 = lshr i64 %5, 2
  %.not23.i = icmp ne i32 %7, 0
  %13 = icmp sgt i32 %6, 0
  %or.cond.i = and i1 %13, %.not23.i
  br i1 %or.cond.i, label %.preheader.us.preheader.i, label %_ZN2cv3hal12cpu_baselineL8bin_loopINS1_10op_absdiffEiNS_12hal_baseline5v_regIiLi4EEEEEvPKT0_mS9_mPS7_mii.exit

.preheader.us.preheader.i:                        ; preds = %8
  %wide.trip.count.i = zext nneg i32 %6 to i64
  br label %.preheader.us.i

.preheader.us.i:                                  ; preds = %._crit_edge.us.i, %.preheader.us.preheader.i
  %.in.i = phi i32 [ %22, %._crit_edge.us.i ], [ %7, %.preheader.us.preheader.i ]
  %.01926.us.i = phi ptr [ %23, %._crit_edge.us.i ], [ %0, %.preheader.us.preheader.i ]
  %.02025.us.i = phi ptr [ %25, %._crit_edge.us.i ], [ %4, %.preheader.us.preheader.i ]
  %.02124.us.i = phi ptr [ %24, %._crit_edge.us.i ], [ %2, %.preheader.us.preheader.i ]
  br label %14

14:                                               ; preds = %14, %.preheader.us.i
  %indvars.iv.i = phi i64 [ 0, %.preheader.us.i ], [ %indvars.iv.next.i, %14 ]
  %15 = getelementptr inbounds i32, ptr %.01926.us.i, i64 %indvars.iv.i
  %16 = load i32, ptr %15, align 4
  %17 = getelementptr inbounds i32, ptr %.02124.us.i, i64 %indvars.iv.i
  %18 = load i32, ptr %17, align 4
  %19 = sub nsw i32 %16, %18
  %20 = call noundef i32 @llvm.abs.i32(i32 %19, i1 true)
  %21 = getelementptr inbounds i32, ptr %.02025.us.i, i64 %indvars.iv.i
  store i32 %20, ptr %21, align 4
  %indvars.iv.next.i = add nuw nsw i64 %indvars.iv.i, 1
  %exitcond.not.i = icmp eq i64 %indvars.iv.next.i, %wide.trip.count.i
  br i1 %exitcond.not.i, label %._crit_edge.us.i, label %14, !llvm.loop !73

._crit_edge.us.i:                                 ; preds = %14
  %22 = add nsw i32 %.in.i, -1
  %23 = getelementptr inbounds i32, ptr %.01926.us.i, i64 %10
  %24 = getelementptr inbounds i32, ptr %.02124.us.i, i64 %11
  %25 = getelementptr inbounds i32, ptr %.02025.us.i, i64 %12
  %.not.us.i = icmp eq i32 %22, 0
  br i1 %.not.us.i, label %_ZN2cv3hal12cpu_baselineL8bin_loopINS1_10op_absdiffEiNS_12hal_baseline5v_regIiLi4EEEEEvPKT0_mS9_mPS7_mii.exit, label %.preheader.us.i, !llvm.loop !74

_ZN2cv3hal12cpu_baselineL8bin_loopINS1_10op_absdiffEiNS_12hal_baseline5v_regIiLi4EEEEEvPKT0_mS9_mPS7_mii.exit: ; preds = %._crit_edge.us.i, %8
  %26 = getelementptr inbounds i8, ptr %9, i64 8
  %27 = load i32, ptr %26, align 8
  %.not.i = icmp eq i32 %27, 0
  br i1 %.not.i, label %_ZN2cv5utils5trace7details6RegionD2Ev.exit, label %28

28:                                               ; preds = %_ZN2cv3hal12cpu_baselineL8bin_loopINS1_10op_absdiffEiNS_12hal_baseline5v_regIiLi4EEEEEvPKT0_mS9_mPS7_mii.exit
  invoke void @_ZN2cv5utils5trace7details6Region7destroyEv(ptr noundef nonnull align 8 dereferenceable(12) %9)
          to label %_ZN2cv5utils5trace7details6RegionD2Ev.exit unwind label %29

29:                                               ; preds = %28
  %30 = landingpad { ptr, i32 }
          catch ptr null
  %31 = extractvalue { ptr, i32 } %30, 0
  call void @__clang_call_terminate(ptr %31) #11
  unreachable

_ZN2cv5utils5trace7details6RegionD2Ev.exit:       ; preds = %_ZN2cv3hal12cpu_baselineL8bin_loopINS1_10op_absdiffEiNS_12hal_baseline5v_regIiLi4EEEEEvPKT0_mS9_mPS7_mii.exit, %28
  ret void
}